target datalayout = "e-m:e-p270:32:32-p271:32:32-p272:64:64-i64:64-i128:128-f80:128-n8:16:32:64-S128"
target triple = "x86_64-pc-linux-gnu"

%struct.CreateForeignServerStmt = type { i32, ptr, ptr, ptr, ptr, i8, ptr }

; Function Attrs: nounwind uwtable
define internal zeroext i1 @_equalCreateForeignServerStmt(ptr noundef %0, ptr noundef %1) #0 {
  %3 = alloca i1, align 1
  %4 = alloca ptr, align 8
  %5 = alloca ptr, align 8
  store ptr %0, ptr %4, align 8
  store ptr %1, ptr %5, align 8
  br label %6

6:                                                ; preds = %2
  %7 = load ptr, ptr %4, align 8
  %8 = getelementptr inbounds nuw %struct.CreateForeignServerStmt, ptr %7, i32 0, i32 1
  %9 = load ptr, ptr %8, align 8
  %10 = icmp ne ptr %9, null
  br i1 %10, label %11, label %25

11:                                               ; preds = %6
  %12 = load ptr, ptr %5, align 8
  %13 = getelementptr inbounds nuw %struct.CreateForeignServerStmt, ptr %12, i32 0, i32 1
  %14 = load ptr, ptr %13, align 8
  %15 = icmp ne ptr %14, null
  br i1 %15, label %16, label %25

16:                                               ; preds = %11
  %17 = load ptr, ptr %4, align 8
  %18 = getelementptr inbounds nuw %struct.CreateForeignServerStmt, ptr %17, i32 0, i32 1
  %19 = load ptr, ptr %18, align 8
  %20 = load ptr, ptr %5, align 8
  %21 = getelementptr inbounds nuw %struct.CreateForeignServerStmt, ptr %20, i32 0, i32 1
  %22 = load ptr, ptr %21, align 8
  %23 = call i32 @strcmp(ptr noundef %19, ptr noundef %22) #8
  %24 = icmp eq i32 %23, 0
  br i1 %24, label %34, label %33

25:                                               ; preds = %11, %6
  %26 = load ptr, ptr %4, align 8
  %27 = getelementptr inbounds nuw %struct.CreateForeignServerStmt, ptr %26, i32 0, i32 1
  %28 = load ptr, ptr %27, align 8
  %29 = load ptr, ptr %5, align 8
  %30 = getelementptr inbounds nuw %struct.CreateForeignServerStmt, ptr %29, i32 0, i32 1
  %31 = load ptr, ptr %30, align 8
  %32 = icmp eq ptr %28, %31
  br i1 %32, label %34, label %33

33:                                               ; preds = %25, %16
  store i1 false, ptr %3, align 1
  br label %152

34:                                               ; preds = %25, %16
  br label %35

35:                                               ; preds = %34
  br label %36

36:                                               ; preds = %35
  %37 = load ptr, ptr %4, align 8
  %38 = getelementptr inbounds nuw %struct.CreateForeignServerStmt, ptr %37, i32 0, i32 2
  %39 = load ptr, ptr %38, align 8
  %40 = icmp ne ptr %39, null
  br i1 %40, label %41, label %55

41:                                               ; preds = %36
  %42 = load ptr, ptr %5, align 8
  %43 = getelementptr inbounds nuw %struct.CreateForeignServerStmt, ptr %42, i32 0, i32 2
  %44 = load ptr, ptr %43, align 8
  %45 = icmp ne ptr %44, null
  br i1 %45, label %46, label %55

46:                                               ; preds = %41
  %47 = load ptr, ptr %4, align 8
  %48 = getelementptr inbounds nuw %struct.CreateForeignServerStmt, ptr %47, i32 0, i32 2
  %49 = load ptr, ptr %48, align 8
  %50 = load ptr, ptr %5, align 8
  %51 = getelementptr inbounds nuw %struct.CreateForeignServerStmt, ptr %50, i32 0, i32 2
  %52 = load ptr, ptr %51, align 8
  %53 = call i32 @strcmp(ptr noundef %49, ptr noundef %52) #8
  %54 = icmp eq i32 %53, 0
  br i1 %54, label %64, label %63

55:                                               ; preds = %41, %36
  %56 = load ptr, ptr %4, align 8
  %57 = getelementptr inbounds nuw %struct.CreateForeignServerStmt, ptr %56, i32 0, i32 2
  %58 = load ptr, ptr %57, align 8
  %59 = load ptr, ptr %5, align 8
  %60 = getelementptr inbounds nuw %struct.CreateForeignServerStmt, ptr %59, i32 0, i32 2
  %61 = load ptr, ptr %60, align 8
  %62 = icmp eq ptr %58, %61
  br i1 %62, label %64, label %63

63:                                               ; preds = %55, %46
  store i1 false, ptr %3, align 1
  br label %152

64:                                               ; preds = %55, %46
  br label %65

65:                                               ; preds = %64
  br label %66

66:                                               ; preds = %65
  %67 = load ptr, ptr %4, align 8
  %68 = getelementptr inbounds nuw %struct.CreateForeignServerStmt, ptr %67, i32 0, i32 3
  %69 = load ptr, ptr %68, align 8
  %70 = icmp ne ptr %69, null
  br i1 %70, label %71, label %85

71:                                               ; preds = %66
  %72 = load ptr, ptr %5, align 8
  %73 = getelementptr inbounds nuw %struct.CreateForeignServerStmt, ptr %72, i32 0, i32 3
  %74 = load ptr, ptr %73, align 8
  %75 = icmp ne ptr %74, null
  br i1 %75, label %76, label %85

76:                                               ; preds = %71
  %77 = load ptr, ptr %4, align 8
  %78 = getelementptr inbounds nuw %struct.CreateForeignServerStmt, ptr %77, i32 0, i32 3
  %79 = load ptr, ptr %78, align 8
  %80 = load ptr, ptr %5, align 8
  %81 = getelementptr inbounds nuw %struct.CreateForeignServerStmt, ptr %80, i32 0, i32 3
  %82 = load ptr, ptr %81, align 8
  %83 = call i32 @strcmp(ptr noundef %79, ptr noundef %82) #8
  %84 = icmp eq i32 %83, 0
  br i1 %84, label %94, label %93

85:                                               ; preds = %71, %66
  %86 = load ptr, ptr %4, align 8
  %87 = getelementptr inbounds nuw %struct.CreateForeignServerStmt, ptr %86, i32 0, i32 3
  %88 = load ptr, ptr %87, align 8
  %89 = load ptr, ptr %5, align 8
  %90 = getelementptr inbounds nuw %struct.CreateForeignServerStmt, ptr %89, i32 0, i32 3
  %91 = load ptr, ptr %90, align 8
  %92 = icmp eq ptr %88, %91
  br i1 %92, label %94, label %93

93:                                               ; preds = %85, %76
  store i1 false, ptr %3, align 1
  br label %152

94:                                               ; preds = %85, %76
  br label %95

95:                                               ; preds = %94
  br label %96

96:                                               ; preds = %95
  %97 = load ptr, ptr %4, align 8
  %98 = getelementptr inbounds nuw %struct.CreateForeignServerStmt, ptr %97, i32 0, i32 4
  %99 = load ptr, ptr %98, align 8
  %100 = icmp ne ptr %99, null
  br i1 %100, label %101, label %115

101:                                              ; preds = %96
  %102 = load ptr, ptr %5, align 8
  %103 = getelementptr inbounds nuw %struct.CreateForeignServerStmt, ptr %102, i32 0, i32 4
  %104 = load ptr, ptr %103, align 8
  %105 = icmp ne ptr %104, null
  br i1 %105, label %106, label %115

106:                                              ; preds = %101
  %107 = load ptr, ptr %4, align 8
  %108 = getelementptr inbounds nuw %struct.CreateForeignServerStmt, ptr %107, i32 0, i32 4
  %109 = load ptr, ptr %108, align 8
  %110 = load ptr, ptr %5, align 8
  %111 = getelementptr inbounds nuw %struct.CreateForeignServerStmt, ptr %110, i32 0, i32 4
  %112 = load ptr, ptr %111, align 8
  %113 = call i32 @strcmp(ptr noundef %109, ptr noundef %112) #8
  %114 = icmp eq i32 %113, 0
  br i1 %114, label %124, label %123

115:                                              ; preds = %101, %96
  %116 = load ptr, ptr %4, align 8
  %117 = getelementptr inbounds nuw %struct.CreateForeignServerStmt, ptr %116, i32 0, i32 4
  %118 = load ptr, ptr %117, align 8
  %119 = load ptr, ptr %5, align 8
  %120 = getelementptr inbounds nuw %struct.CreateForeignServerStmt, ptr %119, i32 0, i32 4
  %121 = load ptr, ptr %120, align 8
  %122 = icmp eq ptr %118, %121
  br i1 %122, label %124, label %123

123:                                              ; preds = %115, %106
  store i1 false, ptr %3, align 1
  br label %152

124:                                              ; preds = %115, %106
  br label %125

125:                                              ; preds = %124
  br label %126

126:                                              ; preds = %125
  %127 = load ptr, ptr %4, align 8
  %128 = getelementptr inbounds nuw %struct.CreateForeignServerStmt, ptr %127, i32 0, i32 5
  %129 = load i8, ptr %128, align 8, !range !4, !noundef !5
  %130 = trunc i8 %129 to i1
  %131 = zext i1 %130 to i32
  %132 = load ptr, ptr %5, align 8
  %133 = getelementptr inbounds nuw %struct.CreateForeignServerStmt, ptr %132, i32 0, i32 5
  %134 = load i8, ptr %133, align 8, !range !4, !noundef !5
  %135 = trunc i8 %134 to i1
  %136 = zext i1 %135 to i32
  %137 = icmp ne i32 %131, %136
  br i1 %137, label %138, label %139

138:                                              ; preds = %126
  store i1 false, ptr %3, align 1
  br label %152

139:                                              ; preds = %126
  br label %140

140:                                              ; preds = %139
  br label %141

141:                                              ; preds = %140
  %142 = load ptr, ptr %4, align 8
  %143 = getelementptr inbounds nuw %struct.CreateForeignServerStmt, ptr %142, i32 0, i32 6
  %144 = load ptr, ptr %143, align 8
  %145 = load ptr, ptr %5, align 8
  %146 = getelementptr inbounds nuw %struct.CreateForeignServerStmt, ptr %145, i32 0, i32 6
  %147 = load ptr, ptr %146, align 8
  %148 = call zeroext i1 @equal(ptr noundef %144, ptr noundef %147)
  br i1 %148, label %150, label %149

149:                                              ; preds = %141
  store i1 false, ptr %3, align 1
  br label %152

150:                                              ; preds = %141
  br label %151

151:                                              ; preds = %150
  store i1 true, ptr %3, align 1
  br label %152

152:                                              ; preds = %151, %149, %138, %123, %93, %63, %33
  %153 = load i1, ptr %3, align 1
  ret i1 %153
}