; Function Attrs: nounwind uwtable
define internal fastcc zeroext i1 @_equalCreateForeignServerStmt(ptr noundef nonnull readonly captures(none) %0, ptr noundef nonnull readonly captures(none) %1) unnamed_addr #0 {
  %3 = getelementptr inbounds nuw i8, ptr %0, i64 8
  %4 = load ptr, ptr %3, align 8
  %.not = icmp eq ptr %4, null
  %.phi.trans.insert = getelementptr inbounds nuw i8, ptr %1, i64 8
  %.pre = load ptr, ptr %.phi.trans.insert, align 8
  br i1 %.not, label %9, label %5

5:                                                ; preds = %2
  %.not37 = icmp eq ptr %.pre, null
  br i1 %.not37, label %.thread, label %6

6:                                                ; preds = %5
  %7 = tail call i32 @strcmp(ptr noundef nonnull dereferenceable(1) %4, ptr noundef nonnull dereferenceable(1) %.pre) #11
  %8 = icmp eq i32 %7, 0
  br i1 %8, label %11, label %.thread

9:                                                ; preds = %2
  %10 = icmp eq ptr %4, %.pre
  br i1 %10, label %11, label %.thread

11:                                               ; preds = %9, %6
  %12 = getelementptr inbounds nuw i8, ptr %0, i64 16
  %13 = load ptr, ptr %12, align 8
  %.not38 = icmp eq ptr %13, null
  %.phi.trans.insert46 = getelementptr inbounds nuw i8, ptr %1, i64 16
  %.pre47 = load ptr, ptr %.phi.trans.insert46, align 8
  br i1 %.not38, label %18, label %14

14:                                               ; preds = %11
  %.not39 = icmp eq ptr %.pre47, null
  br i1 %.not39, label %.thread, label %15

15:                                               ; preds = %14
  %16 = tail call i32 @strcmp(ptr noundef nonnull dereferenceable(1) %13, ptr noundef nonnull dereferenceable(1) %.pre47) #11
  %17 = icmp eq i32 %16, 0
  br i1 %17, label %20, label %.thread

18:                                               ; preds = %11
  %19 = icmp eq ptr %13, %.pre47
  br i1 %19, label %20, label %.thread

20:                                               ; preds = %18, %15
  %21 = getelementptr inbounds nuw i8, ptr %0, i64 24
  %22 = load ptr, ptr %21, align 8
  %.not40 = icmp eq ptr %22, null
  %.phi.trans.insert49 = getelementptr inbounds nuw i8, ptr %1, i64 24
  %.pre50 = load ptr, ptr %.phi.trans.insert49, align 8
  br i1 %.not40, label %27, label %23

23:                                               ; preds = %20
  %.not41 = icmp eq ptr %.pre50, null
  br i1 %.not41, label %.thread, label %24

24:                                               ; preds = %23
  %25 = tail call i32 @strcmp(ptr noundef nonnull dereferenceable(1) %22, ptr noundef nonnull dereferenceable(1) %.pre50) #11
  %26 = icmp eq i32 %25, 0
  br i1 %26, label %29, label %.thread

27:                                               ; preds = %20
  %28 = icmp eq ptr %22, %.pre50
  br i1 %28, label %29, label %.thread

29:                                               ; preds = %27, %24
  %30 = getelementptr inbounds nuw i8, ptr %0, i64 32
  %31 = load ptr, ptr %30, align 8
  %.not42 = icmp eq ptr %31, null
  %.phi.trans.insert52 = getelementptr inbounds nuw i8, ptr %1, i64 32
  %.pre53 = load ptr, ptr %.phi.trans.insert52, align 8
  br i1 %.not42, label %36, label %32

32:                                               ; preds = %29
  %.not43 = icmp eq ptr %.pre53, null
  br i1 %.not43, label %.thread, label %33

33:                                               ; preds = %32
  %34 = tail call i32 @strcmp(ptr noundef nonnull dereferenceable(1) %31, ptr noundef nonnull dereferenceable(1) %.pre53) #11
  %35 = icmp eq i32 %34, 0
  br i1 %35, label %38, label %.thread

36:                                               ; preds = %29
  %37 = icmp eq ptr %31, %.pre53
  br i1 %37, label %38, label %.thread

38:                                               ; preds = %36, %33
  %39 = getelementptr inbounds nuw i8, ptr %0, i64 40
  %40 = load i8, ptr %39, align 8, !range !4, !noundef !5
  %41 = getelementptr inbounds nuw i8, ptr %1, i64 40
  %42 = load i8, ptr %41, align 8, !range !4, !noundef !5
  %.not44 = icmp eq i8 %40, %42
  br i1 %.not44, label %43, label %.thread

43:                                               ; preds = %38
  %44 = getelementptr inbounds nuw i8, ptr %0, i64 48
  %45 = load ptr, ptr %44, align 8
  %46 = getelementptr inbounds nuw i8, ptr %1, i64 48
  %47 = load ptr, ptr %46, align 8
  %48 = tail call zeroext i1 @equal(ptr noundef %45, ptr noundef %47)
  br label %.thread

.thread:                                          ; preds = %32, %23, %14, %5, %43, %38, %33, %36, %24, %27, %15, %18, %6, %9
  %.0 = phi i1 [ false, %9 ], [ false, %6 ], [ false, %18 ], [ false, %15 ], [ false, %27 ], [ false, %24 ], [ false, %36 ], [ false, %33 ], [ false, %38 ], [ %48, %43 ], [ false, %5 ], [ false, %14 ], [ false, %23 ], [ false, %32 ]
  ret i1 %.0
}